; Function Attrs: mustprogress nounwind willreturn uwtable
define void @Bdc_TableAdd(ptr noundef readonly captures(none) %0, ptr noundef initializes((40, 48)) %1) local_unnamed_addr #2 {
  %3 = getelementptr inbounds nuw i8, ptr %0, i64 56
  %4 = load ptr, ptr %3, align 8, !tbaa !27
  %5 = getelementptr inbounds nuw i8, ptr %1, i64 24
  %6 = load i32, ptr %5, align 8, !tbaa !33
  %7 = zext i32 %6 to i64
  %8 = getelementptr inbounds nuw ptr, ptr %4, i64 %7
  %9 = load ptr, ptr %8, align 8, !tbaa !28
  %10 = icmp eq ptr %9, null
  br i1 %10, label %11, label %45

11:                                               ; preds = %2
  %12 = getelementptr inbounds nuw i8, ptr %0, i64 72
  %13 = load ptr, ptr %12, align 8, !tbaa !34
  %14 = getelementptr inbounds nuw i8, ptr %13, i64 4
  %15 = load i32, ptr %14, align 4, !tbaa !35
  %16 = load i32, ptr %13, align 8, !tbaa !37
  %17 = icmp eq i32 %15, %16
  br i1 %17, label %18, label %.Vec_IntGrow.exit10_crit_edge.i

.Vec_IntGrow.exit10_crit_edge.i:                  ; preds = %11
  %.phi.trans.insert.i = getelementptr inbounds nuw i8, ptr %13, i64 8
  %.pre.i = load ptr, ptr %.phi.trans.insert.i, align 8, !tbaa !38
  br label %Vec_IntPush.exit

18:                                               ; preds = %11
  %19 = icmp slt i32 %15, 16
  br i1 %19, label %20, label %28

20:                                               ; preds = %18
  %21 = getelementptr inbounds nuw i8, ptr %13, i64 8
  %22 = load ptr, ptr %21, align 8, !tbaa !38
  %.not9.i.i = icmp eq ptr %22, null
  br i1 %.not9.i.i, label %25, label %23

23:                                               ; preds = %20
  %24 = tail call dereferenceable_or_null(64) ptr @realloc(ptr noundef nonnull %22, i64 noundef 64) #5
  br label %Vec_IntGrow.exit.i

25:                                               ; preds = %20
  %26 = tail call noalias dereferenceable_or_null(64) ptr @malloc(i64 noundef 64) #6
  br label %Vec_IntGrow.exit.i

Vec_IntGrow.exit.i:                               ; preds = %25, %23
  %27 = phi ptr [ %24, %23 ], [ %26, %25 ]
  store ptr %27, ptr %21, align 8, !tbaa !38
  store i32 16, ptr %13, align 8, !tbaa !37
  br label %Vec_IntPush.exit

28:                                               ; preds = %18
  %29 = shl nuw nsw i32 %15, 1
  %30 = getelementptr inbounds nuw i8, ptr %13, i64 8
  %31 = load ptr, ptr %30, align 8, !tbaa !38
  %.not9.i9.i = icmp eq ptr %31, null
  %32 = zext nneg i32 %29 to i64
  %33 = shl nuw nsw i64 %32, 2
  br i1 %.not9.i9.i, label %36, label %34

34:                                               ; preds = %28
  %35 = tail call ptr @realloc(ptr noundef nonnull %31, i64 noundef %33) #5
  br label %38

36:                                               ; preds = %28
  %37 = tail call noalias ptr @malloc(i64 noundef %33) #6
  br label %38

38:                                               ; preds = %36, %34
  %39 = phi ptr [ %35, %34 ], [ %37, %36 ]
  store ptr %39, ptr %30, align 8, !tbaa !38
  store i32 %29, ptr %13, align 8, !tbaa !37
  br label %Vec_IntPush.exit

Vec_IntPush.exit:                                 ; preds = %.Vec_IntGrow.exit10_crit_edge.i, %Vec_IntGrow.exit.i, %38
  %40 = phi ptr [ %.pre.i, %.Vec_IntGrow.exit10_crit_edge.i ], [ %39, %38 ], [ %27, %Vec_IntGrow.exit.i ]
  %41 = load i32, ptr %14, align 4, !tbaa !35
  %42 = add nsw i32 %41, 1
  store i32 %42, ptr %14, align 4, !tbaa !35
  %43 = sext i32 %41 to i64
  %44 = getelementptr inbounds i32, ptr %40, i64 %43
  store i32 %6, ptr %44, align 4, !tbaa !19
  %.pre = load ptr, ptr %3, align 8, !tbaa !27
  %.pre10 = load i32, ptr %5, align 8, !tbaa !33
  %.phi.trans.insert = zext i32 %.pre10 to i64
  %.phi.trans.insert11 = getelementptr inbounds nuw ptr, ptr %.pre, i64 %.phi.trans.insert
  %.pre12 = load ptr, ptr %.phi.trans.insert11, align 8, !tbaa !28
  br label %45

45:                                               ; preds = %Vec_IntPush.exit, %2
  %.pre-phi = phi i64 [ %.phi.trans.insert, %Vec_IntPush.exit ], [ %7, %2 ]
  %46 = phi ptr [ %.pre12, %Vec_IntPush.exit ], [ %9, %2 ]
  %47 = phi ptr [ %.pre, %Vec_IntPush.exit ], [ %4, %2 ]
  %48 = getelementptr inbounds nuw ptr, ptr %47, i64 %.pre-phi
  %49 = getelementptr inbounds nuw i8, ptr %1, i64 40
  store ptr %46, ptr %49, align 8, !tbaa !39
  store ptr %1, ptr %48, align 8, !tbaa !28
  ret void
}